Certificate:
    Data:
        Version: 3 (0x2)
        Serial Number: 2 (0x2)
        Signature Algorithm: sha256WithRSAEncryption
        Issuer: C=CH, O=HEIG-VD, CN=Kayoumi-TLS
        Validity
            Not Before: Jan 21 17:20:34 2021 GMT
            Not After : Jan 21 17:20:34 2023 GMT
        Subject: C=CH, O=HEIG-VD, CN=10.192.72.223
        Subject Public Key Info:
            Public Key Algorithm: rsaEncryption
                RSA Public-Key: (2048 bit)
                Modulus:
                    00:a8:01:67:38:34:e4:e7:de:d1:56:da:22:c1:e5:
                    e5:c6:e8:ae:85:7c:81:1e:b6:bf:72:3c:e6:62:04:
                    e2:42:3a:b8:a2:d2:aa:d8:5f:18:51:c6:4c:f5:f4:
                    f4:fb:f5:5b:b7:1c:91:5b:5e:f0:b9:4b:c7:85:e9:
                    21:92:68:6e:c5:ad:d4:f7:d8:a8:aa:de:83:55:c3:
                    fa:96:89:07:cb:20:3b:94:0d:f6:d9:a0:cd:d4:b1:
                    4d:e6:15:bb:ce:f2:2a:95:8e:43:98:ae:f9:74:f6:
                    e4:2f:d4:c5:d1:7f:c0:5c:5e:b1:10:3c:2e:9f:ae:
                    78:64:44:4c:d6:55:f2:05:5b:fb:df:46:d1:14:df:
                    7d:53:6b:48:ca:ed:72:09:11:6d:a5:fb:53:6c:6a:
                    38:31:92:e8:76:7d:5d:f9:ef:4d:b0:7e:45:de:e6:
                    c8:ea:25:de:b7:98:52:f3:a2:df:e4:53:0e:22:31:
                    fa:d1:3e:f0:e8:97:25:74:44:92:bd:83:15:c7:2d:
                    5a:1b:6b:0d:a5:92:6d:16:e1:6d:b1:9a:ee:77:95:
                    0e:65:95:ab:34:1b:cc:3e:b5:d6:f5:8b:63:2f:f1:
                    8a:0a:a8:23:6a:3c:d7:10:d5:02:31:f3:e4:f8:55:
                    49:b9:02:95:dc:c6:e8:2d:81:3d:f6:d6:8a:5a:78:
                    34:0b
                Exponent: 65537 (0x10001)
        X509v3 extensions:
            X509v3 Key Usage: critical
                Digital Signature, Key Encipherment
            X509v3 Basic Constraints: 
                CA:FALSE
            X509v3 Extended Key Usage: 
                TLS Web Server Authentication, TLS Web Client Authentication
            X509v3 Subject Key Identifier: 
                B1:04:AF:03:F6:91:32:A5:E7:F8:7E:C4:AB:99:44:46:CF:1D:58:70
            X509v3 Authority Key Identifier: 
                keyid:6A:18:B3:58:13:43:AB:56:93:14:0F:37:08:EC:B3:51:EC:3F:0A:6C

            X509v3 Subject Alternative Name: 
                IP Address:10.192.72.223
    Signature Algorithm: sha256WithRSAEncryption
         1a:3a:e2:f8:e2:97:33:10:91:d1:f1:f9:90:42:da:85:05:42:
         10:f0:a4:f2:ac:9c:8c:23:24:48:24:94:08:af:cf:71:d8:5f:
         29:47:c6:26:1d:51:bc:e7:b2:d4:9f:94:6e:f0:93:d6:9e:72:
         f1:9f:50:b3:5b:61:a4:0f:e6:b5:e7:fe:c0:19:48:46:9c:23:
         34:72:33:87:d1:a6:46:b6:8e:81:83:33:1f:be:a7:8c:e2:ae:
         22:d6:9b:d9:0f:38:8f:7b:3f:a3:38:7e:b9:3f:20:a8:8d:66:
         bd:16:57:7f:c5:41:f8:8b:97:68:08:be:d1:c9:2d:d2:b8:0b:
         a3:2b:8c:10:49:b6:58:b4:ed:2e:aa:99:48:2f:6e:10:fd:59:
         c7:6a:96:e6:0d:5a:fe:df:9c:a7:40:7f:df:68:c7:c6:7a:e9:
         15:6c:df:a0:6f:a6:d6:c5:47:fc:53:22:89:77:bb:00:d7:98:
         7b:09:7f:e3:ec:f2:ab:27:9e:bb:e8:52:81:90:3d:73:69:40:
         d1:f0:41:88:e0:d2:4f:30:68:a8:a1:8f:17:ec:6a:1e:4f:7e:
         78:6b:4f:a4:c7:04:c2:c2:eb:75:f5:4b:c5:5f:61:3d:82:f6:
         ed:d6:a6:67:79:8b:68:fb:93:02:dd:47:29:0e:c5:de:c6:7e:
         71:25:e9:e2
-----BEGIN CERTIFICATE-----
MIIDdjCCAl6gAwIBAgIBAjANBgkqhkiG9w0BAQsFADA1MQswCQYDVQQGEwJDSDEQ
MA4GA1UECgwHSEVJRy1WRDEUMBIGA1UEAwwLS2F5b3VtaS1UTFMwHhcNMjEwMTIx
MTcyMDM0WhcNMjMwMTIxMTcyMDM0WjA3MQswCQYDVQQGEwJDSDEQMA4GA1UECgwH
SEVJRy1WRDEWMBQGA1UEAwwNMTAuMTkyLjcyLjIyMzCCASIwDQYJKoZIhvcNAQEB
BQADggEPADCCAQoCggEBAKgBZzg05Ofe0VbaIsHl5cboroV8gR62v3I85mIE4kI6
uKLSqthfGFHGTPX09Pv1W7cckVte8LlLx4XpIZJobsWt1PfYqKreg1XD+paJB8sg
O5QN9tmgzdSxTeYVu87yKpWOQ5iu+XT25C/UxdF/wFxesRA8Lp+ueGRETNZV8gVb
+99G0RTffVNrSMrtcgkRbaX7U2xqODGS6HZ9XfnvTbB+Rd7myOol3reYUvOi3+RT
DiIx+tE+8OiXJXREkr2DFcctWhtrDaWSbRbhbbGa7neVDmWVqzQbzD611vWLYy/x
igqoI2o81xDVAjHz5PhVSbkCldzG6C2BPfbWilp4NAsCAwEAAaOBjjCBizAOBgNV
HQ8BAf8EBAMCBaAwCQYDVR0TBAIwADAdBgNVHSUEFjAUBggrBgEFBQcDAQYIKwYB
BQUHAwIwHQYDVR0OBBYEFLEErwP2kTKl5/h+xKuZREbPHVhwMB8GA1UdIwQYMBaA
FGoYs1gTQ6tWkxQPNwjss1HsPwpsMA8GA1UdEQQIMAaHBArASN8wDQYJKoZIhvcN
AQELBQADggEBABo64vjilzMQkdHx+ZBC2oUFQhDwpPKsnIwjJEgklAivz3HYXylH
xiYdUbznstSflG7wk9aecvGfULNbYaQP5rXn/sAZSEacIzRyM4fRpka2joGDMx++
p4ziriLWm9kPOI97P6M4frk/IKiNZr0WV3/FQfiLl2gIvtHJLdK4C6MrjBBJtli0
7S6qmUgvbhD9WcdqluYNWv7fnKdAf99ox8Z66RVs36BvptbFR/xTIol3uwDXmHsJ
f+Ps8qsnnrvoUoGQPXNpQNHwQYjg0k8waKihjxfsah5PfnhrT6THBMLC63X1S8Vf
YT2C9u3Wpmd5i2j7kwLdRykOxd7GfnEl6eI=
-----END CERTIFICATE-----
