Certificate:
    Data:
        Version: 3 (0x2)
        Serial Number: 56 (0x38)
    Signature Algorithm: sha256WithRSAEncryption
        Issuer: C=CH, O=HEIG-VD, CN=HEIG-VDRoot
        Validity
            Not Before: Jan 18 09:42:04 2021 GMT
            Not After : Jan 18 09:42:04 2031 GMT
        Subject: C=CH, O=HEIG-VD, CN=KAYOUMI-TLS
        Subject Public Key Info:
            Public Key Algorithm: rsaEncryption
                Public-Key: (2048 bit)
                Modulus:
                    00:b7:a3:62:3e:36:a2:ae:19:81:f7:bd:a3:1a:c2:
                    2f:c2:6e:b5:46:4e:6c:57:77:0f:82:b4:04:32:b6:
                    34:ad:f7:f1:5d:7c:c6:97:ca:15:69:43:5b:e5:16:
                    bf:b9:d2:04:2c:76:d8:20:ed:57:d7:f1:10:e6:4f:
                    03:34:31:cc:5c:f1:63:0c:94:02:4a:9c:09:bf:c4:
                    de:76:e1:76:04:58:e6:6b:5c:7e:0d:d2:9f:cc:ba:
                    1e:21:5d:5b:a6:ec:f0:a2:32:99:7c:c1:46:a1:82:
                    9d:5a:6d:e1:ad:bc:0f:81:5f:8a:ba:7b:94:ef:8d:
                    90:88:50:47:31:e6:c3:a4:96:72:25:8a:d5:97:60:
                    c4:c5:c3:56:1a:ed:b2:66:9d:fb:60:f3:91:83:2e:
                    24:ad:a1:40:58:fb:30:bc:cb:95:a4:ce:d4:cc:9e:
                    0e:d4:47:16:6e:aa:29:cb:8d:74:14:74:34:e6:23:
                    6c:35:34:4e:e2:9d:af:41:1c:83:c6:b8:ee:d3:10:
                    fc:81:32:3b:2f:d2:e6:26:9e:46:91:0d:07:a5:65:
                    cb:df:7a:86:61:ac:c1:ef:88:35:60:0a:e9:ed:72:
                    82:91:59:ff:06:c5:55:96:c4:f8:90:3e:71:89:9b:
                    fd:bf:c8:9e:69:e0:e7:85:03:b6:87:d1:73:38:bf:
                    04:4f
                Exponent: 65537 (0x10001)
        X509v3 extensions:
            X509v3 Key Usage: critical
                Certificate Sign, CRL Sign
            X509v3 Basic Constraints: critical
                CA:TRUE, pathlen:0
            X509v3 Subject Key Identifier: 
                69:90:B1:2F:CD:CA:F1:0F:13:D1:73:1E:90:50:C4:7F:FB:FB:9D:03
            X509v3 Authority Key Identifier: 
                keyid:FD:A3:2A:19:D0:42:65:EF:13:A6:0C:60:ED:66:DE:86:12:82:EC:76

    Signature Algorithm: sha256WithRSAEncryption
         32:74:18:e1:ce:17:9f:f1:cc:08:f8:d0:21:cb:3e:17:ce:3c:
         4e:e9:42:de:fd:6f:14:43:db:f9:51:42:8a:59:1d:d5:ec:3d:
         fc:29:de:05:8c:da:1c:26:58:60:58:de:7c:a7:bb:65:ba:78:
         fa:df:4b:e9:57:28:78:17:c8:3a:d1:5d:6b:10:71:98:30:d1:
         1b:a5:2f:e6:43:2c:57:b1:9e:ff:81:0d:c0:15:c4:c6:e1:99:
         c9:76:63:27:5a:33:d4:6c:98:f5:8b:4f:e5:99:94:ea:3a:30:
         09:67:78:ac:79:0d:84:4b:f2:c8:25:fd:67:ad:d3:77:71:d8:
         ea:f6:f4:0f:49:e4:5b:dc:75:b5:c9:f7:69:4c:31:ae:8a:29:
         a9:f5:67:69:e4:83:6d:dd:ea:1e:20:a5:76:8c:b2:e3:9b:be:
         a3:d1:de:f6:7a:ae:87:b1:a9:56:89:bb:a1:5b:d9:8a:45:e8:
         e5:13:07:3d:f4:c3:ad:30:fe:f8:ba:2b:e7:98:9a:1f:d9:0a:
         74:4b:d2:d1:ab:d7:7b:1e:30:55:d3:e0:ea:24:23:5b:eb:9a:
         0c:33:fd:05:fe:25:90:ce:e9:85:0e:9f:2b:50:5d:23:4d:36:
         c4:14:9d:e1:13:d2:06:0b:7f:00:64:5b:a0:5f:d4:cd:b7:43:
         d7:cb:ce:e7
-----BEGIN CERTIFICATE-----
MIIDSzCCAjOgAwIBAgIBODANBgkqhkiG9w0BAQsFADA1MQswCQYDVQQGEwJDSDEQ
MA4GA1UECgwHSEVJRy1WRDEUMBIGA1UEAwwLSEVJRy1WRFJvb3QwHhcNMjEwMTE4
MDk0MjA0WhcNMzEwMTE4MDk0MjA0WjA1MQswCQYDVQQGEwJDSDEQMA4GA1UECgwH
SEVJRy1WRDEUMBIGA1UEAwwLS0FZT1VNSS1UTFMwggEiMA0GCSqGSIb3DQEBAQUA
A4IBDwAwggEKAoIBAQC3o2I+NqKuGYH3vaMawi/CbrVGTmxXdw+CtAQytjSt9/Fd
fMaXyhVpQ1vlFr+50gQsdtgg7VfX8RDmTwM0Mcxc8WMMlAJKnAm/xN524XYEWOZr
XH4N0p/Muh4hXVum7PCiMpl8wUahgp1abeGtvA+BX4q6e5TvjZCIUEcx5sOklnIl
itWXYMTFw1Ya7bJmnftg85GDLiStoUBY+zC8y5WkztTMng7URxZuqinLjXQUdDTm
I2w1NE7ina9BHIPGuO7TEPyBMjsv0uYmnkaRDQelZcvfeoZhrMHviDVgCuntcoKR
Wf8GxVWWxPiQPnGJm/2/yJ5p4OeFA7aH0XM4vwRPAgMBAAGjZjBkMA4GA1UdDwEB
/wQEAwIBBjASBgNVHRMBAf8ECDAGAQH/AgEAMB0GA1UdDgQWBBRpkLEvzcrxDxPR
cx6QUMR/+/udAzAfBgNVHSMEGDAWgBT9oyoZ0EJl7xOmDGDtZt6GEoLsdjANBgkq
hkiG9w0BAQsFAAOCAQEAMnQY4c4Xn/HMCPjQIcs+F848TulC3v1vFEPb+VFCilkd
1ew9/CneBYzaHCZYYFjefKe7Zbp4+t9L6VcoeBfIOtFdaxBxmDDRG6Uv5kMsV7Ge
/4ENwBXExuGZyXZjJ1oz1GyY9YtP5ZmU6jowCWd4rHkNhEvyyCX9Z63Td3HY6vb0
D0nkW9x1tcn3aUwxroopqfVnaeSDbd3qHiCldoyy45u+o9He9nquh7GpVom7oVvZ
ikXo5RMHPfTDrTD++Lor55iaH9kKdEvS0avXex4wVdPg6iQjW+uaDDP9Bf4lkM7p
hQ6fK1BdI002xBSd4RPSBgt/AGRboF/UzbdD18vO5w==
-----END CERTIFICATE-----
