Certificate:
    Data:
        Version: 3 (0x2)
        Serial Number: 1 (0x1)
        Signature Algorithm: sha256WithRSAEncryption
        Issuer: C=CH, O=HEIG-VD, CN=HEIG-VDRoot
        Validity
            Not Before: Jan  4 09:36:11 2021 GMT
            Not After : Dec 31 23:59:59 2030 GMT
        Subject: C=CH, O=HEIG-VD, CN=HEIG-VDRoot
        Subject Public Key Info:
            Public Key Algorithm: rsaEncryption
                RSA Public-Key: (2048 bit)
                Modulus:
                    00:9d:f8:c8:4c:48:9e:db:c6:fb:16:9c:92:2d:dc:
                    48:16:f3:7c:44:61:43:8e:ef:5f:e1:40:3b:3d:08:
                    fa:8a:9a:06:a4:cc:f9:1e:68:de:02:e4:29:0d:36:
                    c2:b2:29:37:74:ca:d2:dd:23:42:46:8e:53:47:58:
                    30:99:53:0b:f4:af:3a:55:3e:5f:bf:54:c2:ed:a4:
                    87:e3:c8:47:9b:4e:f4:e1:d9:c6:2f:9f:51:4f:4c:
                    14:42:16:39:7a:7b:eb:1a:aa:19:aa:28:f2:0f:48:
                    b1:0a:1e:62:1f:86:b2:e1:1e:eb:7d:d5:65:17:a5:
                    24:35:ad:00:45:56:ac:7f:2a:36:2e:83:1f:9f:e8:
                    1a:2c:ce:8b:32:ae:b5:a3:4a:3d:a9:bc:6a:6d:7a:
                    b7:c5:fc:6c:41:18:f6:80:e8:0c:b6:4b:1e:cb:bd:
                    58:18:74:6d:29:85:52:3c:32:18:0b:00:29:6f:68:
                    5c:5f:4b:82:a6:25:7a:cc:0b:00:33:48:f3:0c:2d:
                    6d:27:67:27:a4:4c:7b:7e:74:14:20:9c:97:22:55:
                    fb:90:d7:fc:b4:27:fe:b5:17:0e:b2:44:e8:50:84:
                    2b:83:40:e0:c9:10:b9:b8:9f:cd:21:01:e9:c6:24:
                    f9:47:96:a6:2d:ca:c4:5f:81:1a:63:ac:f9:bc:73:
                    6a:35
                Exponent: 65537 (0x10001)
        X509v3 extensions:
            X509v3 Key Usage: critical
                Certificate Sign, CRL Sign
            X509v3 Basic Constraints: critical
                CA:TRUE
            X509v3 Subject Key Identifier: 
                FD:A3:2A:19:D0:42:65:EF:13:A6:0C:60:ED:66:DE:86:12:82:EC:76
            X509v3 Authority Key Identifier: 
                keyid:FD:A3:2A:19:D0:42:65:EF:13:A6:0C:60:ED:66:DE:86:12:82:EC:76

    Signature Algorithm: sha256WithRSAEncryption
         22:75:70:d0:1d:71:e0:84:93:50:ac:e3:de:f9:1b:97:8b:32:
         c4:e0:a5:e1:4d:9f:f4:c5:79:90:93:a3:03:8f:79:71:03:2a:
         c3:06:6b:62:2a:e8:90:37:74:e7:0b:95:f6:06:50:a4:21:80:
         85:f3:ca:f8:e0:fb:14:19:8b:46:90:1a:5e:a3:5d:41:1e:84:
         37:01:42:7a:1d:8d:ce:b1:fa:6c:03:6c:e9:ae:90:af:d4:75:
         56:96:39:39:19:d1:74:ba:37:e8:95:89:a6:a9:5c:a3:8d:29:
         05:91:ec:40:c6:b8:27:60:56:90:c5:d8:64:18:77:d3:01:83:
         96:67:80:82:df:a5:e5:e3:74:64:79:7d:b4:7c:40:e8:c5:3c:
         6c:26:44:1a:fa:4a:1b:ca:f0:a3:f5:e1:4b:57:55:cd:21:e3:
         99:b2:a8:52:87:5f:89:30:9b:cc:91:39:e7:f3:43:5f:d5:a2:
         44:6f:c8:e5:82:56:fc:eb:f4:3d:f3:d8:b6:d7:ee:4e:98:0f:
         cb:b9:0f:9f:a9:7b:39:c5:39:14:cc:68:b2:54:34:88:5b:71:
         88:c1:c9:04:37:61:5b:d5:26:6d:70:6b:95:c1:a4:9a:20:96:
         58:a3:4a:45:5f:ef:3b:bf:55:47:37:4a:ed:a8:fc:cf:62:e8:
         24:ef:11:f9
-----BEGIN CERTIFICATE-----
MIIDSDCCAjCgAwIBAgIBATANBgkqhkiG9w0BAQsFADA1MQswCQYDVQQGEwJDSDEQ
MA4GA1UECgwHSEVJRy1WRDEUMBIGA1UEAwwLSEVJRy1WRFJvb3QwHhcNMjEwMTA0
MDkzNjExWhcNMzAxMjMxMjM1OTU5WjA1MQswCQYDVQQGEwJDSDEQMA4GA1UECgwH
SEVJRy1WRDEUMBIGA1UEAwwLSEVJRy1WRFJvb3QwggEiMA0GCSqGSIb3DQEBAQUA
A4IBDwAwggEKAoIBAQCd+MhMSJ7bxvsWnJIt3EgW83xEYUOO71/hQDs9CPqKmgak
zPkeaN4C5CkNNsKyKTd0ytLdI0JGjlNHWDCZUwv0rzpVPl+/VMLtpIfjyEebTvTh
2cYvn1FPTBRCFjl6e+saqhmqKPIPSLEKHmIfhrLhHut91WUXpSQ1rQBFVqx/KjYu
gx+f6BoszosyrrWjSj2pvGpterfF/GxBGPaA6Ay2Sx7LvVgYdG0phVI8MhgLAClv
aFxfS4KmJXrMCwAzSPMMLW0nZyekTHt+dBQgnJciVfuQ1/y0J/61Fw6yROhQhCuD
QODJELm4n80hAenGJPlHlqYtysRfgRpjrPm8c2o1AgMBAAGjYzBhMA4GA1UdDwEB
/wQEAwIBBjAPBgNVHRMBAf8EBTADAQH/MB0GA1UdDgQWBBT9oyoZ0EJl7xOmDGDt
Zt6GEoLsdjAfBgNVHSMEGDAWgBT9oyoZ0EJl7xOmDGDtZt6GEoLsdjANBgkqhkiG
9w0BAQsFAAOCAQEAInVw0B1x4ISTUKzj3vkbl4syxOCl4U2f9MV5kJOjA495cQMq
wwZrYirokDd05wuV9gZQpCGAhfPK+OD7FBmLRpAaXqNdQR6ENwFCeh2NzrH6bANs
6a6Qr9R1VpY5ORnRdLo36JWJpqlco40pBZHsQMa4J2BWkMXYZBh30wGDlmeAgt+l
5eN0ZHl9tHxA6MU8bCZEGvpKG8rwo/XhS1dVzSHjmbKoUodfiTCbzJE55/NDX9Wi
RG/I5YJW/Ov0PfPYttfuTpgPy7kPn6l7OcU5FMxoslQ0iFtxiMHJBDdhW9UmbXBr
lcGkmiCWWKNKRV/vO79VRzdK7aj8z2LoJO8R+Q==
-----END CERTIFICATE-----
