Certificate:
    Data:
        Version: 3 (0x2)
        Serial Number: 57 (0x39)
    Signature Algorithm: sha256WithRSAEncryption
        Issuer: C=CH, O=HEIG-VD, CN=HEIG-VDRoot
        Validity
            Not Before: Jan 21 13:26:15 2021 GMT
            Not After : Jan 21 13:26:15 2031 GMT
        Subject: C=CH, O=HEIG-VD, CN=Kayoumi-Email
        Subject Public Key Info:
            Public Key Algorithm: rsaEncryption
                Public-Key: (2048 bit)
                Modulus:
                    00:b7:ac:55:52:32:1d:9a:2b:ca:32:64:a3:f0:ba:
                    bd:51:f8:ed:be:92:a5:10:a7:09:5c:7b:b8:89:35:
                    e0:68:a1:bc:a4:19:e2:94:fa:46:5a:f9:ec:64:41:
                    4e:62:48:74:9a:b3:54:1d:57:14:a6:d5:b9:58:cf:
                    b5:40:a6:ce:f1:36:34:f2:34:3b:86:d6:e7:3a:5f:
                    e5:37:b6:c8:8f:71:85:2b:ee:3b:89:1b:49:45:4d:
                    8a:4a:b1:96:0d:08:b4:e3:bf:07:37:8e:b6:c0:a3:
                    83:25:4f:05:38:ee:c9:63:4d:89:d6:0b:07:18:7b:
                    66:7c:f7:f0:7c:84:27:51:ed:ee:dc:c1:e7:94:50:
                    29:e2:2d:2a:32:86:3c:06:aa:f4:e9:b1:61:ea:6b:
                    c4:94:eb:2f:b5:45:d9:59:26:91:d2:07:75:ee:53:
                    31:a2:95:c9:9f:d4:9f:07:7a:c6:5d:28:97:a6:19:
                    88:5f:f8:cb:65:aa:40:2c:fe:00:26:cf:bf:9c:a4:
                    65:7b:46:8a:65:38:0e:58:95:5e:6a:99:31:df:f3:
                    c6:74:01:e7:e2:c8:03:90:df:6e:cc:61:63:5d:97:
                    af:e3:a2:87:ed:74:93:af:86:40:c5:3e:0e:d1:7e:
                    21:48:72:1a:f4:de:af:0e:f3:73:90:5c:f1:0b:08:
                    a4:df
                Exponent: 65537 (0x10001)
        X509v3 extensions:
            X509v3 Key Usage: critical
                Certificate Sign, CRL Sign
            X509v3 Basic Constraints: critical
                CA:TRUE, pathlen:0
            X509v3 Subject Key Identifier: 
                75:04:CC:EF:10:CE:BF:88:EA:3A:D5:AF:96:95:F6:D4:46:74:3F:02
            X509v3 Authority Key Identifier: 
                keyid:FD:A3:2A:19:D0:42:65:EF:13:A6:0C:60:ED:66:DE:86:12:82:EC:76

    Signature Algorithm: sha256WithRSAEncryption
         23:a7:da:f4:e1:4a:d2:43:53:1a:88:5b:79:74:16:cc:ed:6a:
         3e:77:91:b1:ac:1f:54:f5:9e:95:2d:cc:f2:40:d1:37:af:8e:
         42:7f:f0:73:da:c7:ee:2a:67:c2:9d:81:25:34:4e:e1:5e:80:
         57:8f:dc:df:5d:85:18:84:ab:d0:8e:7a:d0:2d:e4:70:0c:20:
         97:6f:9e:94:79:e0:c9:1d:8f:bf:da:6d:a6:21:8f:f2:d0:91:
         ed:ed:39:69:2e:36:df:28:c8:cb:19:b5:97:6d:08:73:b4:3b:
         b6:d3:68:6a:34:b2:23:b8:d6:f1:fc:fd:6d:e8:77:20:f8:b2:
         4b:d4:38:6b:f2:8b:ec:24:06:d2:0c:6c:4e:57:5b:8f:36:97:
         a8:3f:e5:0d:7a:41:83:ed:29:23:23:27:8a:24:d9:79:c8:5e:
         f4:6b:b0:3f:6f:2c:e0:25:8c:14:36:e4:a6:85:16:95:74:3b:
         29:e8:34:85:6c:c4:69:61:4f:4c:19:14:e2:ec:4e:63:1b:ab:
         e6:b2:95:81:91:e7:11:35:c4:02:05:6c:0d:5f:29:c5:d4:9a:
         85:f8:51:9a:32:96:53:97:68:f9:e2:0a:b2:00:37:19:f2:f2:
         10:bc:d1:ee:92:d3:c4:3c:9e:27:fe:16:60:18:5a:05:a1:10:
         08:b9:50:be
-----BEGIN CERTIFICATE-----
MIIDTTCCAjWgAwIBAgIBOTANBgkqhkiG9w0BAQsFADA1MQswCQYDVQQGEwJDSDEQ
MA4GA1UECgwHSEVJRy1WRDEUMBIGA1UEAwwLSEVJRy1WRFJvb3QwHhcNMjEwMTIx
MTMyNjE1WhcNMzEwMTIxMTMyNjE1WjA3MQswCQYDVQQGEwJDSDEQMA4GA1UECgwH
SEVJRy1WRDEWMBQGA1UEAwwNS2F5b3VtaS1FbWFpbDCCASIwDQYJKoZIhvcNAQEB
BQADggEPADCCAQoCggEBALesVVIyHZoryjJko/C6vVH47b6SpRCnCVx7uIk14Gih
vKQZ4pT6Rlr57GRBTmJIdJqzVB1XFKbVuVjPtUCmzvE2NPI0O4bW5zpf5Te2yI9x
hSvuO4kbSUVNikqxlg0ItOO/BzeOtsCjgyVPBTjuyWNNidYLBxh7Znz38HyEJ1Ht
7tzB55RQKeItKjKGPAaq9OmxYeprxJTrL7VF2VkmkdIHde5TMaKVyZ/Unwd6xl0o
l6YZiF/4y2WqQCz+ACbPv5ykZXtGimU4DliVXmqZMd/zxnQB5+LIA5DfbsxhY12X
r+Oih+10k6+GQMU+DtF+IUhyGvTerw7zc5Bc8QsIpN8CAwEAAaNmMGQwDgYDVR0P
AQH/BAQDAgEGMBIGA1UdEwEB/wQIMAYBAf8CAQAwHQYDVR0OBBYEFHUEzO8Qzr+I
6jrVr5aV9tRGdD8CMB8GA1UdIwQYMBaAFP2jKhnQQmXvE6YMYO1m3oYSgux2MA0G
CSqGSIb3DQEBCwUAA4IBAQAjp9r04UrSQ1MaiFt5dBbM7Wo+d5GxrB9U9Z6VLczy
QNE3r45Cf/Bz2sfuKmfCnYElNE7hXoBXj9zfXYUYhKvQjnrQLeRwDCCXb56UeeDJ
HY+/2m2mIY/y0JHt7TlpLjbfKMjLGbWXbQhztDu202hqNLIjuNbx/P1t6Hcg+LJL
1Dhr8ovsJAbSDGxOV1uPNpeoP+UNekGD7SkjIyeKJNl5yF70a7A/byzgJYwUNuSm
hRaVdDsp6DSFbMRpYU9MGRTi7E5jG6vmspWBkecRNcQCBWwNXynF1JqF+FGaMpZT
l2j54gqyADcZ8vIQvNHuktPEPJ4n/hZgGFoFoRAIuVC+
-----END CERTIFICATE-----
