Certificate:
    Data:
        Version: 3 (0x2)
        Serial Number: 1 (0x1)
        Signature Algorithm: sha256WithRSAEncryption
        Issuer: C=CH, O=HEIG-VD, CN=Kayoumi-Email
        Validity
            Not Before: Jan 21 13:32:32 2021 GMT
            Not After : Jan 21 13:32:32 2023 GMT
        Subject: C=CH, O=HEIG-VD, CN=Doran Kayoumi
        Subject Public Key Info:
            Public Key Algorithm: rsaEncryption
                RSA Public-Key: (2048 bit)
                Modulus:
                    00:ae:ce:ef:5f:61:3b:1e:df:08:94:c0:74:7b:94:
                    10:1f:66:69:4c:70:ce:aa:17:40:d2:47:b5:6e:e6:
                    20:bf:90:45:42:0c:db:20:0e:28:4c:c7:dc:6e:50:
                    b0:07:ae:50:82:82:77:fb:68:a5:9f:1e:b4:38:61:
                    14:75:aa:8c:e2:22:02:d8:7b:24:ee:f9:41:d3:61:
                    d3:7a:84:b6:af:6d:08:6a:e8:f0:b1:9e:5d:56:7e:
                    2e:ce:2c:54:cb:0f:79:f5:65:04:e8:9e:73:45:58:
                    ae:37:b9:bb:5e:ed:76:dc:04:e5:89:cf:f4:8e:15:
                    6c:a2:ec:b1:3c:4c:d2:34:07:b1:7b:48:00:10:e1:
                    f2:60:32:35:de:50:14:9e:61:33:40:78:8a:d0:76:
                    f6:de:3f:eb:1d:5d:aa:61:e8:7d:06:7d:e9:34:50:
                    6e:2f:b9:a9:af:bf:16:da:9f:16:9f:78:8c:67:39:
                    21:2e:7b:42:d5:4a:f9:74:a2:2f:86:93:f1:32:2e:
                    d5:94:db:ca:3e:94:21:0b:88:80:44:e4:23:66:41:
                    01:89:b9:dd:83:f9:92:a1:0f:7f:8e:d4:43:b1:19:
                    1e:4c:9b:07:0b:8b:2a:2e:0e:9a:f4:b7:1a:41:1d:
                    43:8d:b7:4f:bd:b8:67:d1:d7:5a:bd:1d:77:8e:42:
                    da:f5
                Exponent: 65537 (0x10001)
        X509v3 extensions:
            X509v3 Key Usage: critical
                Digital Signature, Key Encipherment
            X509v3 Basic Constraints: 
                CA:FALSE
            X509v3 Extended Key Usage: 
                E-mail Protection, TLS Web Client Authentication, Any Extended Key Usage
            X509v3 Subject Key Identifier: 
                0F:9D:C8:57:44:B9:30:44:8F:D8:A1:77:E0:2F:BF:71:3E:05:14:66
            X509v3 Authority Key Identifier: 
                keyid:75:04:CC:EF:10:CE:BF:88:EA:3A:D5:AF:96:95:F6:D4:46:74:3F:02

            X509v3 Subject Alternative Name: 
                email:doran.kayoumi@heig-vd.ch
    Signature Algorithm: sha256WithRSAEncryption
         76:d1:60:b1:eb:bf:a6:40:2e:71:2c:88:db:58:93:21:f5:cd:
         97:54:11:e4:a1:bf:c2:21:32:50:73:44:d6:50:9b:0d:3c:3e:
         a7:83:e9:b3:62:37:a2:21:77:ea:46:3d:37:5a:ab:0b:57:c7:
         ed:27:fb:26:a2:1a:fe:62:e3:88:c1:93:2f:e2:7f:4a:3f:99:
         cb:e0:98:6c:0d:89:b4:25:34:10:e4:9a:78:7d:4e:3e:f4:40:
         46:af:86:7b:ba:ea:cd:77:4c:d6:0d:47:a0:8e:3b:06:17:e2:
         f3:d5:f0:d4:21:f2:cb:a7:b7:6e:f2:b1:fd:bf:6c:48:37:1d:
         d7:c4:9d:81:09:3c:7f:51:ed:23:a4:2c:f5:cf:41:a7:c6:3e:
         6c:3c:7b:06:5f:d0:05:08:5d:f1:28:99:01:ee:71:17:12:5b:
         d3:3d:3b:cb:05:79:b8:a1:a9:98:3b:33:8a:43:f7:74:1e:5c:
         0d:a7:97:02:c2:a4:c7:29:56:6f:b0:d4:c5:26:a2:b2:83:6c:
         f7:f8:c1:e2:e0:ae:43:0b:1c:46:10:b5:cf:64:d0:34:51:21:
         f9:82:56:03:e4:05:bf:33:fe:11:cd:3e:84:98:39:83:e3:c5:
         ff:cc:fd:05:9a:45:c0:88:4d:9b:fc:a3:dc:3e:cb:b2:27:3a:
         b1:d9:6f:a5
-----BEGIN CERTIFICATE-----
MIIDkjCCAnqgAwIBAgIBATANBgkqhkiG9w0BAQsFADA3MQswCQYDVQQGEwJDSDEQ
MA4GA1UECgwHSEVJRy1WRDEWMBQGA1UEAwwNS2F5b3VtaS1FbWFpbDAeFw0yMTAx
MjExMzMyMzJaFw0yMzAxMjExMzMyMzJaMDcxCzAJBgNVBAYTAkNIMRAwDgYDVQQK
DAdIRUlHLVZEMRYwFAYDVQQDDA1Eb3JhbiBLYXlvdW1pMIIBIjANBgkqhkiG9w0B
AQEFAAOCAQ8AMIIBCgKCAQEArs7vX2E7Ht8IlMB0e5QQH2ZpTHDOqhdA0ke1buYg
v5BFQgzbIA4oTMfcblCwB65QgoJ3+2ilnx60OGEUdaqM4iIC2Hsk7vlB02HTeoS2
r20IaujwsZ5dVn4uzixUyw959WUE6J5zRViuN7m7Xu123ATlic/0jhVsouyxPEzS
NAexe0gAEOHyYDI13lAUnmEzQHiK0Hb23j/rHV2qYeh9Bn3pNFBuL7mpr78W2p8W
n3iMZzkhLntC1Ur5dKIvhpPxMi7VlNvKPpQhC4iAROQjZkEBibndg/mSoQ9/jtRD
sRkeTJsHC4sqLg6a9LcaQR1DjbdPvbhn0ddavR13jkLa9QIDAQABo4GoMIGlMA4G
A1UdDwEB/wQEAwIFoDAJBgNVHRMEAjAAMCMGA1UdJQQcMBoGCCsGAQUFBwMEBggr
BgEFBQcDAgYEVR0lADAdBgNVHQ4EFgQUD53IV0S5MESP2KF34C+/cT4FFGYwHwYD
VR0jBBgwFoAUdQTM7xDOv4jqOtWvlpX21EZ0PwIwIwYDVR0RBBwwGoEYZG9yYW4u
a2F5b3VtaUBoZWlnLXZkLmNoMA0GCSqGSIb3DQEBCwUAA4IBAQB20WCx67+mQC5x
LIjbWJMh9c2XVBHkob/CITJQc0TWUJsNPD6ng+mzYjeiIXfqRj03WqsLV8ftJ/sm
ohr+YuOIwZMv4n9KP5nL4JhsDYm0JTQQ5Jp4fU4+9EBGr4Z7uurNd0zWDUegjjsG
F+Lz1fDUIfLLp7du8rH9v2xINx3XxJ2BCTx/Ue0jpCz1z0Gnxj5sPHsGX9AFCF3x
KJkB7nEXElvTPTvLBXm4oamYOzOKQ/d0HlwNp5cCwqTHKVZvsNTFJqKyg2z3+MHi
4K5DCxxGELXPZNA0USH5glYD5AW/M/4RzT6EmDmD48X/zP0FmkXAiE2b/KPcPsuy
Jzqx2W+l
-----END CERTIFICATE-----
