Certificate:
    Data:
        Version: 3 (0x2)
        Serial Number: 2 (0x2)
        Signature Algorithm: sha256WithRSAEncryption
        Issuer: C=CH, O=HEIG-VD, CN=KAYOUMI-Email
        Validity
            Not Before: Jan 18 10:48:42 2021 GMT
            Not After : Jan 18 10:48:42 2023 GMT
        Subject: C=CH, O=HEIG-VD, CN=Doran Kayoumi
        Subject Public Key Info:
            Public Key Algorithm: rsaEncryption
                RSA Public-Key: (2048 bit)
                Modulus:
                    00:d0:b0:7b:fb:5b:0e:20:9f:3f:2a:68:70:fd:c0:
                    4c:19:bd:30:31:20:84:e5:3b:ab:26:cb:fd:f8:7a:
                    ea:c6:e1:ac:83:5a:dc:f0:38:bd:9d:8c:8c:19:39:
                    ec:0a:b7:50:32:35:7b:a8:5c:77:15:f9:d2:04:f2:
                    62:0c:ac:04:05:9f:62:c8:64:c5:c0:a3:7c:54:25:
                    bb:da:36:e6:40:d0:65:50:83:5e:53:44:7b:a3:be:
                    fd:bf:2a:12:7a:c3:45:d4:b4:3e:65:4d:df:cd:d0:
                    6d:54:b3:2e:ef:80:53:36:3d:79:29:e8:04:f6:f7:
                    49:cc:b1:fa:06:f2:61:32:2f:eb:86:67:9e:1e:95:
                    f4:42:1c:af:f6:56:e1:1d:17:11:32:bb:cb:83:c3:
                    e0:45:a3:7b:48:10:5d:36:fa:b6:e4:25:c8:4e:6b:
                    eb:51:e6:81:99:ff:df:35:f3:59:e9:b3:35:39:a1:
                    dd:96:be:6f:74:42:b8:58:75:2d:3f:1f:1a:ff:77:
                    b8:50:90:4f:80:d6:8e:e7:4a:2d:60:aa:dc:ea:3f:
                    df:0e:de:37:73:d1:54:c2:2d:ab:72:6a:e4:ed:a1:
                    91:91:73:7e:33:a2:af:28:3b:44:3f:c6:46:e7:43:
                    a6:01:ec:ae:e7:44:f7:ae:b5:3f:1d:3e:63:9b:7d:
                    75:1f
                Exponent: 65537 (0x10001)
        X509v3 extensions:
            X509v3 Key Usage: critical
                Digital Signature, Key Encipherment
            X509v3 Extended Key Usage: 
                E-mail Protection, TLS Web Client Authentication
            X509v3 Subject Key Identifier: 
                88:E3:B2:7F:46:7F:8E:D5:5E:5E:46:E8:79:7F:14:67:E1:3B:10:9D
            X509v3 Subject Alternative Name: 
                <EMPTY>

    Signature Algorithm: sha256WithRSAEncryption
         1d:06:78:60:7e:ee:80:f1:bb:48:4d:4a:16:91:c5:f1:32:76:
         91:85:41:e5:6f:cb:f6:cc:db:15:c9:d1:a8:71:f2:90:b9:f5:
         8b:99:a9:82:0b:b6:b4:fa:87:6f:d9:c7:58:43:d9:d9:b3:8f:
         2b:83:49:2d:23:5a:e2:6b:13:5f:6c:ac:71:82:95:51:e9:60:
         2f:91:f4:9e:ae:c0:ee:25:44:9c:aa:3a:87:44:aa:4b:30:65:
         f1:8a:ae:1c:37:61:fa:03:5d:3f:1b:0b:3a:a7:27:fe:ba:15:
         b9:c0:6f:c0:d7:f6:da:38:cd:0f:9c:47:a7:c5:a1:86:68:81:
         05:4a:d5:6f:bb:87:dd:6b:8d:1f:d5:f8:40:4f:fe:6e:5a:ae:
         65:28:23:cd:55:2e:ab:96:fe:cf:86:72:55:89:f4:c3:b5:a6:
         db:23:35:a0:b3:11:11:bf:00:48:0d:22:9d:d4:58:e2:cd:e0:
         b3:19:3e:bf:ce:db:74:89:94:1d:f3:8e:40:3f:a6:fa:0e:5e:
         d2:35:6d:d5:18:54:b9:93:0c:bb:df:09:13:e3:9a:32:7d:ad:
         a4:5d:57:fc:13:46:44:63:33:5c:3d:dc:f9:20:7a:d1:2f:16:
         4e:5f:00:4b:17:01:21:44:9c:80:06:25:a8:92:7a:10:32:9f:
         53:5d:b4:1e
-----BEGIN CERTIFICATE-----
MIIDRDCCAiygAwIBAgIBAjANBgkqhkiG9w0BAQsFADA3MQswCQYDVQQGEwJDSDEQ
MA4GA1UECgwHSEVJRy1WRDEWMBQGA1UEAwwNS0FZT1VNSS1FbWFpbDAeFw0yMTAx
MTgxMDQ4NDJaFw0yMzAxMTgxMDQ4NDJaMDcxCzAJBgNVBAYTAkNIMRAwDgYDVQQK
DAdIRUlHLVZEMRYwFAYDVQQDDA1Eb3JhbiBLYXlvdW1pMIIBIjANBgkqhkiG9w0B
AQEFAAOCAQ8AMIIBCgKCAQEA0LB7+1sOIJ8/Kmhw/cBMGb0wMSCE5TurJsv9+Hrq
xuGsg1rc8Di9nYyMGTnsCrdQMjV7qFx3FfnSBPJiDKwEBZ9iyGTFwKN8VCW72jbm
QNBlUINeU0R7o779vyoSesNF1LQ+ZU3fzdBtVLMu74BTNj15KegE9vdJzLH6BvJh
Mi/rhmeeHpX0Qhyv9lbhHRcRMrvLg8PgRaN7SBBdNvq25CXITmvrUeaBmf/fNfNZ
6bM1OaHdlr5vdEK4WHUtPx8a/3e4UJBPgNaO50otYKrc6j/fDt43c9FUwi2rcmrk
7aGRkXN+M6KvKDtEP8ZG50OmAeyu50T3rrU/HT5jm311HwIDAQABo1swWTAOBgNV
HQ8BAf8EBAMCBaAwHQYDVR0lBBYwFAYIKwYBBQUHAwQGCCsGAQUFBwMCMB0GA1Ud
DgQWBBSI47J/Rn+O1V5eRuh5fxRn4TsQnTAJBgNVHREEAjAAMA0GCSqGSIb3DQEB
CwUAA4IBAQAdBnhgfu6A8btITUoWkcXxMnaRhUHlb8v2zNsVydGocfKQufWLmamC
C7a0+odv2cdYQ9nZs48rg0ktI1riaxNfbKxxgpVR6WAvkfSersDuJUScqjqHRKpL
MGXxiq4cN2H6A10/Gws6pyf+uhW5wG/A1/baOM0PnEenxaGGaIEFStVvu4fda40f
1fhAT/5uWq5lKCPNVS6rlv7PhnJVifTDtabbIzWgsxERvwBIDSKd1FjizeCzGT6/
ztt0iZQd845AP6b6Dl7SNW3VGFS5kwy73wkT45oyfa2kXVf8E0ZEYzNcPdz5IHrR
LxZOXwBLFwEhRJyABiWoknoQMp9TXbQe
-----END CERTIFICATE-----
