Certificate:
    Data:
        Version: 3 (0x2)
        Serial Number: 1 (0x1)
        Signature Algorithm: sha256WithRSAEncryption
        Issuer: C=CH, O=HEIG-VD, CN=KAYOUMI-Email
        Validity
            Not Before: Jan 18 10:19:23 2021 GMT
            Not After : Jan 18 10:19:23 2023 GMT
        Subject: C=CH, O=HEIG-VD, CN=Doran Kayoumi
        Subject Public Key Info:
            Public Key Algorithm: rsaEncryption
                RSA Public-Key: (2048 bit)
                Modulus:
                    00:9f:3d:63:f2:77:36:da:16:10:29:af:e6:1b:28:
                    4f:d6:11:a6:51:18:10:13:f5:00:eb:1e:2e:2c:5c:
                    0c:a8:3b:25:d9:ed:68:5b:12:e8:e3:eb:d3:80:0c:
                    f0:a3:e1:1f:dd:bb:04:6a:e5:29:15:59:85:6e:c4:
                    ab:0b:df:b5:0e:bc:a9:63:da:e9:01:7c:b1:00:8c:
                    f7:51:b6:c7:28:d9:4d:af:7c:c4:41:4b:fc:f0:68:
                    51:3a:5a:4f:c9:81:5e:04:1f:6f:91:6b:36:fc:37:
                    cb:af:12:47:c9:fa:f2:66:aa:a1:db:d9:19:86:f4:
                    3f:93:e5:c4:0a:ec:66:74:94:eb:51:81:82:48:b7:
                    6a:86:ad:05:78:4e:87:ef:87:91:75:b5:60:bc:f3:
                    f1:42:e0:e7:4e:1c:41:9f:a8:a0:fb:2e:ba:8f:d0:
                    4e:7b:60:ce:d4:4f:9e:00:6f:ad:ee:39:78:2e:19:
                    71:ea:a1:f6:8c:d4:a7:0d:4b:7b:a7:4d:df:fe:c7:
                    e3:30:66:e6:9c:47:47:bf:e5:08:ac:20:24:00:40:
                    ae:22:8c:b1:26:4a:a1:91:12:74:51:38:37:d6:07:
                    64:bb:d2:ab:a9:f4:ed:eb:6c:c7:f7:1a:49:58:5f:
                    38:84:c5:b3:82:39:55:ce:16:4b:f8:fd:6f:12:e1:
                    19:19
                Exponent: 65537 (0x10001)
        X509v3 extensions:
            X509v3 Key Usage: critical
                Digital Signature, Key Encipherment
            X509v3 Extended Key Usage: 
                E-mail Protection, TLS Web Client Authentication
            X509v3 Subject Key Identifier: 
                51:21:84:CF:BA:84:32:06:C7:A8:45:8C:8E:DA:0D:24:8D:17:22:B0
            X509v3 Subject Alternative Name: 
                <EMPTY>

    Signature Algorithm: sha256WithRSAEncryption
         32:3c:96:11:17:46:23:19:ed:33:8f:f7:fb:03:c8:ff:ff:29:
         e6:a3:f8:4b:e4:b3:6c:49:0c:c1:fd:ef:81:60:d9:e8:d7:29:
         28:c0:d4:f3:8e:ad:d5:49:05:c8:cd:41:62:f1:a5:57:0c:2f:
         19:0b:79:c8:08:47:c9:f2:b7:7d:ba:e8:23:88:5c:a8:eb:23:
         c1:2b:3c:5f:4a:48:f1:18:a9:18:c1:f1:39:2a:a7:86:83:64:
         0d:2e:5a:69:25:20:39:22:ca:7c:2d:4c:e3:b0:94:25:c3:05:
         b2:80:9e:d4:c5:89:93:ba:f1:c8:41:8b:1d:11:72:e9:f7:91:
         78:ad:2c:17:e3:38:7c:32:e4:36:55:96:2c:d6:fb:88:a6:89:
         78:f0:2e:a0:01:ca:88:da:1b:81:fc:66:77:56:08:d4:f4:79:
         5e:4f:44:c3:04:52:5b:d7:a3:85:15:64:06:05:a2:47:1b:b1:
         46:8f:61:81:96:c9:ae:18:d5:67:f9:54:c8:34:b3:62:1c:99:
         0c:c1:20:1e:ae:02:06:07:be:18:2d:d2:ae:04:f5:0a:bc:90:
         20:8b:fb:7f:2e:4f:d1:28:c2:c4:d2:a8:29:90:cf:ee:b6:4a:
         32:2d:9a:c4:62:74:63:ec:1e:b2:9d:8f:7c:33:c7:3a:8f:2a:
         31:08:24:ce
-----BEGIN CERTIFICATE-----
MIIDRDCCAiygAwIBAgIBATANBgkqhkiG9w0BAQsFADA3MQswCQYDVQQGEwJDSDEQ
MA4GA1UECgwHSEVJRy1WRDEWMBQGA1UEAwwNS0FZT1VNSS1FbWFpbDAeFw0yMTAx
MTgxMDE5MjNaFw0yMzAxMTgxMDE5MjNaMDcxCzAJBgNVBAYTAkNIMRAwDgYDVQQK
DAdIRUlHLVZEMRYwFAYDVQQDDA1Eb3JhbiBLYXlvdW1pMIIBIjANBgkqhkiG9w0B
AQEFAAOCAQ8AMIIBCgKCAQEAnz1j8nc22hYQKa/mGyhP1hGmURgQE/UA6x4uLFwM
qDsl2e1oWxLo4+vTgAzwo+Ef3bsEauUpFVmFbsSrC9+1DrypY9rpAXyxAIz3UbbH
KNlNr3zEQUv88GhROlpPyYFeBB9vkWs2/DfLrxJHyfryZqqh29kZhvQ/k+XECuxm
dJTrUYGCSLdqhq0FeE6H74eRdbVgvPPxQuDnThxBn6ig+y66j9BOe2DO1E+eAG+t
7jl4Lhlx6qH2jNSnDUt7p03f/sfjMGbmnEdHv+UIrCAkAECuIoyxJkqhkRJ0UTg3
1gdku9KrqfTt62zH9xpJWF84hMWzgjlVzhZL+P1vEuEZGQIDAQABo1swWTAOBgNV
HQ8BAf8EBAMCBaAwHQYDVR0lBBYwFAYIKwYBBQUHAwQGCCsGAQUFBwMCMB0GA1Ud
DgQWBBRRIYTPuoQyBseoRYyO2g0kjRcisDAJBgNVHREEAjAAMA0GCSqGSIb3DQEB
CwUAA4IBAQAyPJYRF0YjGe0zj/f7A8j//ynmo/hL5LNsSQzB/e+BYNno1ykowNTz
jq3VSQXIzUFi8aVXDC8ZC3nICEfJ8rd9uugjiFyo6yPBKzxfSkjxGKkYwfE5KqeG
g2QNLlppJSA5Isp8LUzjsJQlwwWygJ7UxYmTuvHIQYsdEXLp95F4rSwX4zh8MuQ2
VZYs1vuIpol48C6gAcqI2huB/GZ3VgjU9HleT0TDBFJb16OFFWQGBaJHG7FGj2GB
lsmuGNVn+VTINLNiHJkMwSAergIGB74YLdKuBPUKvJAgi/t/Lk/RKMLE0qgpkM/u
tkoyLZrEYnRj7B6ynY98M8c6jyoxCCTO
-----END CERTIFICATE-----
